target datalayout = "e-m:e-p270:32:32-p271:32:32-p272:64:64-i64:64-i128:128-f80:128-n8:16:32:64-S128"
target triple = "x86_64-pc-linux-gnu"

%struct._zval_struct = type { %union._zend_value, %union.anon, %union.anon.2 }
%union._zend_value = type { i64 }
%union.anon = type { i32 }
%union.anon.2 = type { i32 }
%union._zend_function = type { %struct._zend_op_array }
%struct._zend_op_array = type { i8, [3 x i8], i32, ptr, ptr, ptr, i32, i32, ptr, ptr, ptr, ptr, i32, ptr, i32, i32, i32, ptr, ptr, ptr, ptr, ptr, i32, i32, ptr, ptr, ptr, i32, i32, i32, i32, ptr, ptr, [6 x ptr] }
%struct._zend_refcounted_h = type { i32, %union.anon.4 }
%union.anon.4 = type { i32 }
%struct._zend_closure = type { %struct._zend_object, %union._zend_function, %struct._zval_struct, ptr, ptr }
%struct._zend_object = type { %struct._zend_refcounted_h, i32, i32, ptr, ptr, ptr, [1 x %struct._zval_struct] }
%struct.anon.3 = type { i8, [3 x i8], i32, ptr, ptr, ptr, i32, i32, ptr, ptr, ptr, ptr, i32, ptr }
%struct._zend_string = type { %struct._zend_refcounted_h, i64, i64, [1 x i8] }

@zend_known_strings = external global ptr, align 8
@.str.10 = private unnamed_addr constant [21 x i8] c"Class \22%s\22 not found\00", align 1

; Function Attrs: alwaysinline nounwind uwtable
define internal zeroext i1 @zend_string_equal_content(ptr noundef %0, ptr noundef %1) #6 {
  %3 = alloca ptr, align 8
  %4 = alloca ptr, align 8
  store ptr %0, ptr %3, align 8, !tbaa !52
  store ptr %1, ptr %4, align 8, !tbaa !52
  %5 = load ptr, ptr %3, align 8, !tbaa !52
  %6 = getelementptr inbounds nuw %struct._zend_string, ptr %5, i32 0, i32 2
  %7 = load i64, ptr %6, align 8, !tbaa !119
  %8 = load ptr, ptr %4, align 8, !tbaa !52
  %9 = getelementptr inbounds nuw %struct._zend_string, ptr %8, i32 0, i32 2
  %10 = load i64, ptr %9, align 8, !tbaa !119
  %11 = icmp eq i64 %7, %10
  br i1 %11, label %12, label %16

12:                                               ; preds = %2
  %13 = load ptr, ptr %3, align 8, !tbaa !52
  %14 = load ptr, ptr %4, align 8, !tbaa !52
  %15 = call zeroext i1 @zend_string_equal_val(ptr noundef %13, ptr noundef %14)
  br label %16

16:                                               ; preds = %12, %2
  %17 = phi i1 [ false, %2 ], [ %15, %12 ]
  ret i1 %17
}

; Function Attrs: nounwind uwtable
define dso_local void @zend_create_closure(ptr noundef %0, ptr noundef %1, ptr noundef %2, ptr noundef %3, ptr noundef %4) #0 {
  %6 = alloca ptr, align 8
  %7 = alloca ptr, align 8
  %8 = alloca ptr, align 8
  %9 = alloca ptr, align 8
  %10 = alloca ptr, align 8
  store ptr %0, ptr %6, align 8, !tbaa !9
  store ptr %1, ptr %7, align 8, !tbaa !17
  store ptr %2, ptr %8, align 8, !tbaa !47
  store ptr %3, ptr %9, align 8, !tbaa !47
  store ptr %4, ptr %10, align 8, !tbaa !9
  %11 = load ptr, ptr %6, align 8, !tbaa !9
  %12 = load ptr, ptr %7, align 8, !tbaa !17
  %13 = load ptr, ptr %8, align 8, !tbaa !47
  %14 = load ptr, ptr %9, align 8, !tbaa !47
  %15 = load ptr, ptr %10, align 8, !tbaa !9
  %16 = load ptr, ptr %7, align 8, !tbaa !17
  %17 = getelementptr inbounds nuw %struct.anon.3, ptr %16, i32 0, i32 2
  %18 = load i32, ptr %17, align 4, !tbaa !20
  %19 = and i32 %18, 8388608
  %20 = icmp ne i32 %19, 0
  call void @zend_create_closure_ex(ptr noundef %11, ptr noundef %12, ptr noundef %13, ptr noundef %14, ptr noundef %15, i1 noundef zeroext %20)
  ret void
}

; Function Attrs: alwaysinline nounwind uwtable
define internal zeroext i1 @zend_string_equals(ptr noundef %0, ptr noundef %1) #6 {
  %3 = alloca ptr, align 8
  %4 = alloca ptr, align 8
  store ptr %0, ptr %3, align 8, !tbaa !52
  store ptr %1, ptr %4, align 8, !tbaa !52
  %5 = load ptr, ptr %3, align 8, !tbaa !52
  %6 = load ptr, ptr %4, align 8, !tbaa !52
  %7 = icmp eq ptr %5, %6
  br i1 %7, label %12, label %8

8:                                                ; preds = %2
  %9 = load ptr, ptr %3, align 8, !tbaa !52
  %10 = load ptr, ptr %4, align 8, !tbaa !52
  %11 = call zeroext i1 @zend_string_equal_content(ptr noundef %9, ptr noundef %10)
  br label %12

12:                                               ; preds = %8, %2
  %13 = phi i1 [ true, %2 ], [ %11, %8 ]
  ret i1 %13
}

; Function Attrs: nounwind uwtable
define internal void @do_closure_bind(ptr noundef %0, ptr noundef %1, ptr noundef %2, ptr noundef %3, ptr noundef %4) #0 {
  %6 = alloca ptr, align 8
  %7 = alloca ptr, align 8
  %8 = alloca ptr, align 8
  %9 = alloca ptr, align 8
  %10 = alloca ptr, align 8
  %11 = alloca ptr, align 8
  %12 = alloca ptr, align 8
  %13 = alloca ptr, align 8
  %14 = alloca i32, align 4
  store ptr %0, ptr %6, align 8, !tbaa !9
  store ptr %1, ptr %7, align 8, !tbaa !9
  store ptr %2, ptr %8, align 8, !tbaa !9
  store ptr %3, ptr %9, align 8, !tbaa !33
  store ptr %4, ptr %10, align 8, !tbaa !52
  call void @llvm.lifetime.start.p0(i64 8, ptr %11) #11
  call void @llvm.lifetime.start.p0(i64 8, ptr %12) #11
  call void @llvm.lifetime.start.p0(i64 8, ptr %13) #11
  %15 = load ptr, ptr %7, align 8, !tbaa !9
  %16 = getelementptr inbounds nuw %struct._zval_struct, ptr %15, i32 0, i32 0
  %17 = load ptr, ptr %16, align 8, !tbaa !20
  store ptr %17, ptr %13, align 8, !tbaa !40
  %18 = load ptr, ptr %9, align 8, !tbaa !33
  %19 = icmp ne ptr %18, null
  br i1 %19, label %20, label %24

20:                                               ; preds = %5
  %21 = load ptr, ptr %9, align 8, !tbaa !33
  %22 = getelementptr inbounds nuw %struct._zend_object, ptr %21, i32 0, i32 3
  %23 = load ptr, ptr %22, align 8, !tbaa !61
  store ptr %23, ptr %11, align 8, !tbaa !47
  br label %58

24:                                               ; preds = %5
  %25 = load ptr, ptr %10, align 8, !tbaa !52
  %26 = icmp ne ptr %25, null
  br i1 %26, label %27, label %56

27:                                               ; preds = %24
  %28 = load ptr, ptr %10, align 8, !tbaa !52
  %29 = load ptr, ptr @zend_known_strings, align 8, !tbaa !89
  %30 = getelementptr inbounds ptr, ptr %29, i64 19
  %31 = load ptr, ptr %30, align 8, !tbaa !52
  %32 = call zeroext i1 @zend_string_equals(ptr noundef %28, ptr noundef %31)
  br i1 %32, label %33, label %38

33:                                               ; preds = %27
  %34 = load ptr, ptr %13, align 8, !tbaa !40
  %35 = getelementptr inbounds nuw %struct._zend_closure, ptr %34, i32 0, i32 1
  %36 = getelementptr inbounds nuw %struct.anon.3, ptr %35, i32 0, i32 4
  %37 = load ptr, ptr %36, align 8, !tbaa !20
  store ptr %37, ptr %11, align 8, !tbaa !47
  br label %55

38:                                               ; preds = %27
  %39 = load ptr, ptr %10, align 8, !tbaa !52
  %40 = call ptr @zend_lookup_class(ptr noundef %39)
  store ptr %40, ptr %11, align 8, !tbaa !47
  %41 = icmp eq ptr %40, null
  br i1 %41, label %42, label %54

42:                                               ; preds = %38
  %43 = load ptr, ptr %10, align 8, !tbaa !52
  %44 = getelementptr inbounds nuw %struct._zend_string, ptr %43, i32 0, i32 3
  %45 = getelementptr inbounds [1 x i8], ptr %44, i64 0, i64 0
  call void (i32, ptr, ...) @zend_error(i32 noundef 2, ptr noundef @.str.10, ptr noundef %45)
  br label %46

46:                                               ; preds = %42
  br label %47

47:                                               ; preds = %46
  %48 = load ptr, ptr %6, align 8, !tbaa !9
  %49 = getelementptr inbounds nuw %struct._zval_struct, ptr %48, i32 0, i32 1
  store i32 1, ptr %49, align 8, !tbaa !20
  br label %50

50:                                               ; preds = %47
  br label %51

51:                                               ; preds = %50
  store i32 1, ptr %14, align 4
  br label %82

52:                                               ; No predecessors!
  br label %53

53:                                               ; preds = %52
  br label %54

54:                                               ; preds = %53, %38
  br label %55

55:                                               ; preds = %54, %33
  br label %57

56:                                               ; preds = %24
  store ptr null, ptr %11, align 8, !tbaa !47
  br label %57

57:                                               ; preds = %56, %55
  br label %58

58:                                               ; preds = %57, %20
  %59 = load ptr, ptr %13, align 8, !tbaa !40
  %60 = load ptr, ptr %8, align 8, !tbaa !9
  %61 = load ptr, ptr %11, align 8, !tbaa !47
  %62 = call zeroext i1 @zend_valid_closure_binding(ptr noundef %59, ptr noundef %60, ptr noundef %61)
  br i1 %62, label %64, label %63

63:                                               ; preds = %58
  store i32 1, ptr %14, align 4
  br label %82

64:                                               ; preds = %58
  %65 = load ptr, ptr %8, align 8, !tbaa !9
  %66 = icmp ne ptr %65, null
  br i1 %66, label %67, label %73

67:                                               ; preds = %64
  %68 = load ptr, ptr %8, align 8, !tbaa !9
  %69 = getelementptr inbounds nuw %struct._zval_struct, ptr %68, i32 0, i32 0
  %70 = load ptr, ptr %69, align 8, !tbaa !20
  %71 = getelementptr inbounds nuw %struct._zend_object, ptr %70, i32 0, i32 3
  %72 = load ptr, ptr %71, align 8, !tbaa !61
  store ptr %72, ptr %12, align 8, !tbaa !47
  br label %75

73:                                               ; preds = %64
  %74 = load ptr, ptr %11, align 8, !tbaa !47
  store ptr %74, ptr %12, align 8, !tbaa !47
  br label %75

75:                                               ; preds = %73, %67
  %76 = load ptr, ptr %6, align 8, !tbaa !9
  %77 = load ptr, ptr %13, align 8, !tbaa !40
  %78 = getelementptr inbounds nuw %struct._zend_closure, ptr %77, i32 0, i32 1
  %79 = load ptr, ptr %11, align 8, !tbaa !47
  %80 = load ptr, ptr %12, align 8, !tbaa !47
  %81 = load ptr, ptr %8, align 8, !tbaa !9
  call void @zend_create_closure(ptr noundef %76, ptr noundef %78, ptr noundef %79, ptr noundef %80, ptr noundef %81)
  store i32 0, ptr %14, align 4
  br label %82

82:                                               ; preds = %75, %63, %51
  call void @llvm.lifetime.end.p0(i64 8, ptr %13) #11
  call void @llvm.lifetime.end.p0(i64 8, ptr %12) #11
  call void @llvm.lifetime.end.p0(i64 8, ptr %11) #11
  %83 = load i32, ptr %14, align 4
  switch i32 %83, label %85 [
    i32 0, label %84
    i32 1, label %84
  ]

84:                                               ; preds = %82, %82
  ret void

85:                                               ; preds = %82
  unreachable
}