; Function Attrs: nounwind uwtable
define internal fastcc void @do_closure_bind(ptr noundef %0, ptr captures(none) %.0.val, ptr noundef captures(address_is_null) %1, ptr noundef readonly captures(address_is_null) %2, ptr noundef %3) unnamed_addr #0 {
  %.not = icmp eq ptr %2, null
  br i1 %.not, label %8, label %5

5:                                                ; preds = %4
  %6 = getelementptr inbounds nuw i8, ptr %2, i64 16
  %7 = load ptr, ptr %6, align 8, !tbaa !36
  br label %28

8:                                                ; preds = %4
  %.not27 = icmp eq ptr %3, null
  br i1 %.not27, label %28, label %9

9:                                                ; preds = %8
  %10 = load ptr, ptr @zend_known_strings, align 8, !tbaa !59
  %11 = getelementptr inbounds nuw i8, ptr %10, i64 152
  %12 = load ptr, ptr %11, align 8, !tbaa !61
  %13 = icmp eq ptr %3, %12
  br i1 %13, label %zend_string_equals.exit.thread, label %14

14:                                               ; preds = %9
  %15 = getelementptr inbounds nuw i8, ptr %3, i64 16
  %16 = load i64, ptr %15, align 8, !tbaa !68
  %17 = getelementptr inbounds nuw i8, ptr %12, i64 16
  %18 = load i64, ptr %17, align 8, !tbaa !68
  %19 = icmp eq i64 %16, %18
  br i1 %19, label %zend_string_equals.exit, label %zend_string_equals.exit.thread1

zend_string_equals.exit:                          ; preds = %14
  %20 = tail call zeroext i1 @zend_string_equal_val(ptr noundef nonnull %3, ptr noundef nonnull %12) #13
  br i1 %20, label %zend_string_equals.exit.thread, label %zend_string_equals.exit.thread1

zend_string_equals.exit.thread:                   ; preds = %9, %zend_string_equals.exit
  %21 = getelementptr inbounds nuw i8, ptr %.0.val, i64 72
  %22 = load ptr, ptr %21, align 8, !tbaa !15
  br label %28

zend_string_equals.exit.thread1:                  ; preds = %14, %zend_string_equals.exit
  %23 = tail call ptr @zend_lookup_class(ptr noundef nonnull %3) #13
  %24 = icmp eq ptr %23, null
  br i1 %24, label %25, label %28

25:                                               ; preds = %zend_string_equals.exit.thread1
  %26 = getelementptr inbounds nuw i8, ptr %3, i64 24
  tail call void (i32, ptr, ...) @zend_error(i32 noundef 2, ptr noundef nonnull @.str.10, ptr noundef nonnull %26) #13
  %27 = getelementptr inbounds nuw i8, ptr %0, i64 8
  store i32 1, ptr %27, align 8, !tbaa !15
  br label %44

28:                                               ; preds = %8, %zend_string_equals.exit.thread1, %zend_string_equals.exit.thread, %5
  %.0 = phi ptr [ %7, %5 ], [ %22, %zend_string_equals.exit.thread ], [ %23, %zend_string_equals.exit.thread1 ], [ null, %8 ]
  %29 = tail call fastcc zeroext i1 @zend_valid_closure_binding(ptr noundef %.0.val, ptr noundef %1, ptr noundef %.0)
  br i1 %29, label %30, label %44

30:                                               ; preds = %28
  %.not28 = icmp eq ptr %1, null
  br i1 %.not28, label %.split22, label %.split

.split:                                           ; preds = %30
  %31 = load ptr, ptr %1, align 8, !tbaa !15
  %32 = getelementptr inbounds nuw i8, ptr %31, i64 16
  %33 = load ptr, ptr %32, align 8, !tbaa !36
  %34 = getelementptr inbounds nuw i8, ptr %.0.val, i64 56
  %35 = getelementptr inbounds nuw i8, ptr %.0.val, i64 60
  %36 = load i32, ptr %35, align 4, !tbaa !15
  %37 = and i32 %36, 8388608
  %38 = icmp ne i32 %37, 0
  tail call fastcc void @zend_create_closure_ex(ptr noundef %0, ptr noundef nonnull %34, ptr noundef %.0, ptr noundef %33, ptr noundef nonnull %1, i1 noundef zeroext %38)
  br label %44

.split22:                                         ; preds = %30
  %39 = getelementptr inbounds nuw i8, ptr %.0.val, i64 56
  %40 = getelementptr inbounds nuw i8, ptr %.0.val, i64 60
  %41 = load i32, ptr %40, align 4, !tbaa !15
  %42 = and i32 %41, 8388608
  %43 = icmp ne i32 %42, 0
  tail call fastcc void @zend_create_closure_ex(ptr noundef %0, ptr noundef nonnull %39, ptr noundef %.0, ptr noundef %.0, ptr noundef null, i1 noundef zeroext %43)
  br label %44

44:                                               ; preds = %.split, %.split22, %28, %25
  ret void
}